; Function Attrs: nounwind uwtable
define range(i32 -1, 1) i32 @H5Lcreate_soft(ptr noundef %0, i64 noundef %1, ptr noundef %2, i64 noundef %3, i64 noundef %4) local_unnamed_addr #0 {
  %6 = alloca %struct.H5CX_node_t, align 8
  call void @llvm.lifetime.start.p0(i64 480, ptr nonnull %6) #7
  call void @llvm.memset.p0.i64(ptr noundef nonnull align 8 dereferenceable(480) %6, i8 0, i64 480, i1 false)
  %7 = load i8, ptr @H5_libinit_g, align 1, !tbaa !7, !range !9, !noundef !10
  %8 = trunc nuw i8 %7 to i1
  %9 = load i8, ptr @H5_libterm_g, align 1, !range !9
  %10 = trunc nuw i8 %9 to i1
  %11 = select i1 %8, i1 true, i1 %10
  br i1 %11, label %19, label %12, !prof !11

12:                                               ; preds = %5
  %13 = tail call i32 @H5_init_library() #7
  %14 = icmp slt i32 %13, 0
  br i1 %14, label %15, label %._crit_edge, !prof !12

._crit_edge:                                      ; preds = %12
  %.pre = load i8, ptr @H5_libterm_g, align 1, !range !9
  br label %19

15:                                               ; preds = %12
  %16 = load i64, ptr @H5E_FUNC_g, align 8, !tbaa !3
  %17 = load i64, ptr @H5E_CANTINIT_g, align 8, !tbaa !3
  %18 = tail call i32 (ptr, ptr, i32, i64, i64, ptr, ...) @H5E_printf_stack(ptr noundef nonnull @.str, ptr noundef nonnull @__func__.H5Lcreate_soft, i32 noundef 362, i64 noundef %16, i64 noundef %17, ptr noundef nonnull @.str.1) #7
  br label %.thread18

19:                                               ; preds = %._crit_edge, %5
  %20 = phi i8 [ %.pre, %._crit_edge ], [ %9, %5 ]
  %21 = load i8, ptr @H5L_init_g, align 1, !tbaa !7, !range !9, !noundef !10
  %22 = trunc nuw i8 %21 to i1
  %23 = trunc nuw i8 %20 to i1
  %24 = select i1 %22, i1 true, i1 %23
  br i1 %24, label %32, label %25, !prof !11

25:                                               ; preds = %19
  store i8 1, ptr @H5L_init_g, align 1, !tbaa !7
  %26 = tail call i32 @H5L__init_package() #7
  %27 = icmp slt i32 %26, 0
  br i1 %27, label %28, label %32, !prof !13

28:                                               ; preds = %25
  store i8 0, ptr @H5L_init_g, align 1, !tbaa !7
  %29 = load i64, ptr @H5E_FUNC_g, align 8, !tbaa !3
  %30 = load i64, ptr @H5E_CANTINIT_g, align 8, !tbaa !3
  %31 = tail call i32 (ptr, ptr, i32, i64, i64, ptr, ...) @H5E_printf_stack(ptr noundef nonnull @.str, ptr noundef nonnull @__func__.H5Lcreate_soft, i32 noundef 362, i64 noundef %29, i64 noundef %30, ptr noundef nonnull @.str.2) #7
  br label %.thread18

32:                                               ; preds = %19, %25
  %33 = call i32 @H5CX_push(ptr noundef nonnull %6) #7
  %34 = icmp slt i32 %33, 0
  br i1 %34, label %35, label %39, !prof !12

35:                                               ; preds = %32
  %36 = load i64, ptr @H5E_FUNC_g, align 8, !tbaa !3
  %37 = load i64, ptr @H5E_CANTSET_g, align 8, !tbaa !3
  %38 = call i32 (ptr, ptr, i32, i64, i64, ptr, ...) @H5E_printf_stack(ptr noundef nonnull @.str, ptr noundef nonnull @__func__.H5Lcreate_soft, i32 noundef 362, i64 noundef %36, i64 noundef %37, ptr noundef nonnull @.str.3) #7
  br label %.thread18

39:                                               ; preds = %32
  %40 = call i32 @H5E_clear_stack() #7
  %41 = call fastcc i32 @H5L__create_soft_api_common(ptr noundef %0, i64 noundef %1, ptr noundef %2, i64 noundef %3, i64 noundef %4, ptr noundef null, ptr noundef null)
  %42 = icmp slt i32 %41, 0
  br i1 %42, label %.thread23, label %47, !prof !19

.thread23:                                        ; preds = %39
  %43 = load i64, ptr @H5E_LINK_g, align 8, !tbaa !3
  %44 = load i64, ptr @H5E_CANTCREATE_g, align 8, !tbaa !3
  %45 = call i32 (ptr, ptr, i32, i64, i64, ptr, ...) @H5E_printf_stack(ptr noundef nonnull @.str, ptr noundef nonnull @__func__.H5Lcreate_soft, i32 noundef 366, i64 noundef %43, i64 noundef %44, ptr noundef nonnull @.str.16) #7
  %46 = call i32 @H5CX_pop(i1 noundef zeroext true) #7
  br label %.thread18

47:                                               ; preds = %39
  %48 = call i32 @H5CX_pop(i1 noundef zeroext true) #7
  br label %50

.thread18:                                        ; preds = %15, %28, %35, %.thread23
  %49 = call i32 @H5E_dump_api_stack() #7
  br label %50

50:                                               ; preds = %47, %.thread18
  %.0121621 = phi i32 [ -1, %.thread18 ], [ 0, %47 ]
  call void @llvm.lifetime.end.p0(i64 480, ptr nonnull %6) #7
  ret i32 %.0121621
}